 ConEmuBg

 Timestamp is 527c022a (Fri Nov 08 01:12:10 2013)

 Preferred load address is 10000000

 Start         Length     Name                   Class
 0001:00000000 00005b8aH .text                   CODE
 0002:00000000 0000014cH .idata$5                DATA
 0002:00000150 00001070H .rdata                  DATA
 0002:000011c0 00000078H .idata$2                DATA
 0002:00001238 00000014H .idata$3                DATA
 0002:0000124c 0000014cH .idata$4                DATA
 0002:00001398 000005a2H .idata$6                DATA
 0002:00001940 0000018bH .edata                  DATA
 0003:00000000 000000a0H .data                   DATA
 0003:000000a0 000009b4H .bss                    DATA
 0004:00000000 00000058H .rsrc$01                DATA
 0004:00000060 00000298H .rsrc$02                DATA

  Address         Publics by Value              Rva+Base       Lib:Object

 0000:00000000       ___safe_se_handler_count   00000000     <absolute>
 0000:00000000       ___safe_se_handler_table   00000000     <absolute>
 0001:00000000       __chkstk                   10001000 f   chkstk.obj
 0001:00000000       __alloca_probe             10001000     chkstk.obj
 0001:000000aa       ??1MStream@@QAE@XZ         100010aa f i ConEmuBg.obj
 0001:000000e0       ?SetData@MStream@@QAEXPBXK@Z 100010e0 f i ConEmuBg.obj
 0001:0000011d       ?QueryInterface@MStream@@UAGJABU_GUID@@PAPAX@Z 1000111d f i ConEmuBg.obj
 0001:00000172       ?AddRef@MStream@@UAGKXZ    10001172 f i ConEmuBg.obj
 0001:00000183       ?Read@MStream@@UAGJPAXKPAK@Z 10001183 f i ConEmuBg.obj
 0001:000001e5       ?Write@MStream@@UAGJPBXKPAK@Z 100011e5 f i ConEmuBg.obj
 0001:00000278       ?Seek@MStream@@UAGJT_LARGE_INTEGER@@KPAT_ULARGE_INTEGER@@@Z 10001278 f i ConEmuBg.obj
 0001:000002fb       ?SetSize@MStream@@UAGJT_ULARGE_INTEGER@@@Z 100012fb f i ConEmuBg.obj
 0001:0000037a       ?UnlockRegion@MStream@@UAGJT_ULARGE_INTEGER@@0K@Z 1000137a f i ConEmuBg.obj
 0001:0000037a       ?CopyTo@MStream@@UAGJPAUIStream@@T_ULARGE_INTEGER@@PAT3@2@Z 1000137a f i ConEmuBg.obj
 0001:0000037a       ?LockRegion@MStream@@UAGJT_ULARGE_INTEGER@@0K@Z 1000137a f i ConEmuBg.obj
 0001:00000382       ?Commit@MStream@@UAGJK@Z   10001382 f i ConEmuBg.obj
 0001:00000391       ?Revert@MStream@@UAGJXZ    10001391 f i ConEmuBg.obj
 0001:00000399       ?Stat@MStream@@UAGJPAUtagSTATSTG@@K@Z 10001399 f i ConEmuBg.obj
 0001:000003fd       ?Clone@MStream@@UAGJPAPAUIStream@@@Z 100013fd f i ConEmuBg.obj
 0001:000005a2       _GetMinFarVersionW@0       100015a2 f   ConEmuBg.obj
 0001:000005a8       ?GetPluginInfoWcmn@@YGXPAX@Z 100015a8 f   ConEmuBg.obj
 0001:00000702       ?LoadFarVersion@@YIHXZ     10001702 f   ConEmuBg.obj
 0001:0000074f       ?ReportFail@@YIXPB_W@Z     1000174f f   ConEmuBg.obj
 0001:0000078f       ?Close@CachedImage@@QAEXXZ 1000178f f i ConEmuBg.obj
 0001:00000801       ?Init@GDIPlusDecoder@@QAE_NXZ 10001801 f i ConEmuBg.obj
 0001:00000a4f       ?FreeThreadProc@GDIPlusDecoder@@SGKPAX@Z 10001a4f f i ConEmuBg.obj
 0001:00000a6a       ?Close@GDIPlusDecoder@@QAEXXZ 10001a6a f i ConEmuBg.obj
 0001:00000b08       ?GdipDone@@YIXXZ           10001b08 f   ConEmuBg.obj
 0001:00000be5       ?ParseColors@@YIXPB_WHAAY0CA@KAAH@Z 10001be5 f   ConEmuBg.obj
 0001:00000c96       ?RGB2HSV@@YIXABURGBColor@@AAUHSVColor@@@Z 10001c96 f   ConEmuBg.obj
 0001:00000d59       ?ClrPart@@YIEH@Z           10001d59 f i ConEmuBg.obj
 0001:00000d7a       ?HSV2RGB@@YIXABUHSVColor@@AAURGBColor@@@Z 10001d7a f   ConEmuBg.obj
 0001:00000ec6       ?GetStatusLineCount@@YIHPAUPaintBackgroundArg@@H@Z 10001ec6 f   ConEmuBg.obj
 0001:00001050       ?SettingsLoad@@YIXXZ       10002050 f   ConEmuBg.obj
 0001:000010b2       ?SettingsLoadReg@@YIXPB_W@Z 100020b2 f   ConEmuBg.obj
 0001:000011d8       ?SettingsSave@@YIXXZ       100021d8 f   ConEmuBg.obj
 0001:00001210       ?SettingsSaveReg@@YIXPB_W@Z 10002210 f   ConEmuBg.obj
 0001:000012a9       ?ExitPlugin@@YIXXZ         100022a9 f   ConEmuBg.obj
 0001:000012ef       _ExitFARW@0                100022ef f   ConEmuBg.obj
 0001:00001316       ?ExitFARW3@@YGXPAX@Z       10002316 f   ConEmuBg.obj
 0001:00001344       ?GetMsgW@@YIPB_WH@Z        10002344 f   ConEmuBg.obj
 0001:0000137d       ?OpenW@@YGPAXPBX@Z         1000237d f   ConEmuBg.obj
 0001:000013a2       _ConfigureW@4              100023a2 f   ConEmuBg.obj
 0001:000013e4       ?ConfigureW3@@YGHPAX@Z     100023e4 f   ConEmuBg.obj
 0001:00001424       ?OpenPluginWcmn@@YIPAXHH@Z 10002424 f   ConEmuBg.obj
 0001:00001450       ?FMatch@@YI_NPB_WPA_W@Z    10002450 f   ConEmuBg.obj
 0001:0000155f       ?StringCchCopyW@@YGJPA_WIPB_W@Z 1000255f f i ConEmuBg.obj
 0001:00001591       ?StringCchCatW@@YGJPA_WIPB_W@Z 10002591 f i ConEmuBg.obj
 0001:000015e4       ?Release@MStream@@UAGKXZ   100025e4 f i ConEmuBg.obj
 0001:00001611       _DllMain@12                10002611 f   ConEmuBg.obj
 0001:00001662       __DllMainCRTStartup@12     10002662 f   ConEmuBg.obj
 0001:00001679       ?CheckXmlFile@@YI_N_N@Z    10002679 f   ConEmuBg.obj
 0001:00001a69       ?GdipInit@@YI_NXZ          10002a69 f   ConEmuBg.obj
 0001:00001b09       ?CompareNames@@YI_NPB_WPA_W@Z 10002b09 f   ConEmuBg.obj
 0001:00001bf5       ?Init@CachedImage@@QAE_NPB_WPAUHDC__@@IIQAU2@@Z 10002bf5 f i ConEmuBg.obj
 0001:00001cdc       ?GetImage@GDIPlusDecoder@@QAEPAUCachedImage@@PB_W@Z 10002cdc f i ConEmuBg.obj
 0001:00002099       ??0MStream@@QAE@XZ         10003099 f i ConEmuBg.obj
 0001:000020b9       ?FillPanelParams@@YIHPAUPaintBackgroundArg@@PAUtag_BkPanelInfo@1@PAUDrawInfo@@@Z 100030b9 f   ConEmuBg.obj
 0001:00002aee       ?PaintPanel@@YIHPAUPaintBackgroundArg@@HAAKAAH@Z 10003aee f   ConEmuBg.obj
 0001:000037ef       ?PaintConEmuBackground@@YGHPAUPaintBackgroundArg@@@Z 100047ef f   ConEmuBg.obj
 0001:000038f2       ?StartPlugin@@YIXH@Z       100048f2 f   ConEmuBg.obj
 0001:000039e8       _SetStartupInfoW@4         100049e8 f   ConEmuBg.obj
 0001:00003a3e       ?OnConEmuLoaded@@YGXPAUConEmuLoadedArg@@@Z 10004a3e f   ConEmuBg.obj
 0001:00003a6a       ?GetPluginInfoW995@@YIXPAX@Z 10004a6a f   ConEmuBg995.obj
 0001:00003ab2       ?SetStartupInfoW995@@YIXPAX@Z 10004ab2 f   ConEmuBg995.obj
 0001:00003bf7       _OpenPluginW@8             10004bf7 f   ConEmuBg995.obj
 0001:00003c15       ?ExitFARW995@@YIXXZ        10004c15 f   ConEmuBg995.obj
 0001:00003c5b       ?GetMsgW995@@YIPB_WH@Z     10004c5b f   ConEmuBg995.obj
 0001:00003fe6       ?ConfigureW995@@YIHH@Z     10004fe6 f   ConEmuBg995.obj
 0001:00003ff7       ?SettingsLoadW995@@YIXXZ   10004ff7 f   ConEmuBg995.obj
 0001:00004002       ?SettingsSaveW995@@YIXXZ   10005002 f   ConEmuBg995.obj
 0001:0000400d       ?FMatchW995@@YI_NPB_WPA_W@Z 1000500d f   ConEmuBg995.obj
 0001:00004025       ?GetPluginInfoW1900@@YIXPAX@Z 10005025 f   ConEmuBg1900.obj
 0001:00004075       ?SetStartupInfoW1900@@YIXPAX@Z 10005075 f   ConEmuBg1900.obj
 0001:00004163       ?ExitFARW1900@@YIXXZ       10005163 f   ConEmuBg1900.obj
 0001:00004192       ?GetMsgW1900@@YIPB_WH@Z    10005192 f   ConEmuBg1900.obj
 0001:00004575       ?ConfigureW1900@@YIHH@Z    10005575 f   ConEmuBg1900.obj
 0001:00004586       ?SettingsLoadW1900@@YIXXZ  10005586 f   ConEmuBg1900.obj
 0001:000046c3       ?SettingsSaveW1900@@YIXXZ  100056c3 f   ConEmuBg1900.obj
 0001:000047a7       ?FMatchW1900@@YI_NPB_WPA_W@Z 100057a7 f   ConEmuBg1900.obj
 0001:000047c0       _GetGlobalInfoW@4          100057c0 f   ConEmuBg2800.obj
 0001:00004853       ?GetPluginInfoW2800@@YIXPAX@Z 10005853 f   ConEmuBg2800.obj
 0001:000048a3       ?SetStartupInfoW2800@@YIXPAX@Z 100058a3 f   ConEmuBg2800.obj
 0001:00004991       ?OpenW2800@@YGPAXPBX@Z     10005991 f   ConEmuBg2800.obj
 0001:00004991       ?OpenW1900@@YGPAXPBX@Z     10005991 f   ConEmuBg1900.obj
 0001:000049b0       ?ExitFARW2800@@YIXXZ       100059b0 f   ConEmuBg2800.obj
 0001:000049df       ?GetMsgW2800@@YIPB_WH@Z    100059df f   ConEmuBg2800.obj
 0001:00004dd4       ?ConfigureW2800@@YIHH@Z    10005dd4 f   ConEmuBg2800.obj
 0001:00004de5       ?SettingsLoadW2800@@YIXXZ  10005de5 f   ConEmuBg2800.obj
 0001:00004f0e       ?SettingsSaveW2800@@YIXXZ  10005f0e f   ConEmuBg2800.obj
 0001:00004fe8       ?FMatchW2800@@YI_NPB_WPA_W@Z 10005fe8 f   ConEmuBg2800.obj
 0001:00005001       _GetMinFarVersion@0        10006001 f   ConEmuBgA.obj
 0001:00005030       _SetStartupInfo@4          10006030 f   ConEmuBgA.obj
 0001:000051a2       _GetPluginInfo@4           100061a2 f   ConEmuBgA.obj
 0001:00005202       _ExitFAR@0                 10006202 f   ConEmuBgA.obj
 0001:0000568f       _Configure@4               1000668f f   ConEmuBgA.obj
 0001:000056a4       _OpenPlugin@8              100066a4 f   ConEmuBgA.obj
 0001:000056ba       ?SettingsLoadA@@YIXXZ      100066ba f   ConEmuBgA.obj
 0001:000056c5       ?SettingsSaveA@@YIXXZ      100066c5 f   ConEmuBgA.obj
 0001:000056d0       ?FMatchA@@YI_NPBDPAD@Z     100066d0 f   ConEmuBgA.obj
 0001:000056e6       ?HeapInitialize@@YI_NXZ    100066e6 f   Memory.obj
 0001:0000570c       ?HeapDeinitialize@@YIXXZ   1000670c f   Memory.obj
 0001:00005724       ?xf_malloc@@YAPAXI@Z       10006724 f   Memory.obj
 0001:00005737       ?xf_calloc@@YAPAXII@Z      10006737 f   Memory.obj
 0001:00005750       ?xf_free@@YAXPAX@Z         10006750 f   Memory.obj
 0001:0000576e       ??3@YAXPAX@Z               1000676e f   Memory.obj
 0001:00005773       ?lstrdup@@YIPA_WPB_W@Z     10006773 f   Memory.obj
 0001:000057b0       _wcschr                    100067b0 f   libCRT:strchr.obj
 0001:000057e0       _wcsrchr                   100067e0 f   libCRT:strrchr.obj
 0001:00005810       _wcsstr                    10006810 f   libCRT:strstr.obj
 0001:00005870       _memmove                   10006870 f   libCRT:memmove.obj
 0001:00005a70       _wcstoul                   10006a70 f   libCRT:strtol.obj
 0001:00005a90       _memset                    10006a90 f   libCRT:memset.obj
 0001:00005ad0       __allmul                   10006ad0 f   libCRT:vc_llmul.obj
 0001:00005b10       __aulldiv                  10006b10 f   libCRT:vc_ulldiv.obj
 0001:00005b78       _VerQueryValueW@16         10006b78 f   version:VERSION.dll
 0001:00005b7e       _GetFileVersionInfoW@16    10006b7e f   version:VERSION.dll
 0001:00005b84       _GetFileVersionInfoSizeW@8 10006b84 f   version:VERSION.dll
 0002:00000000       __imp__RegSetValueExW@24   10007000     advapi32:ADVAPI32.dll
 0002:00000004       __imp__RegOpenKeyExW@20    10007004     advapi32:ADVAPI32.dll
 0002:00000008       __imp__RegQueryValueExW@24 10007008     advapi32:ADVAPI32.dll
 0002:0000000c       __imp__RegCloseKey@4       1000700c     advapi32:ADVAPI32.dll
 0002:00000010       __imp__RegCreateKeyExW@36  10007010     advapi32:ADVAPI32.dll
 0002:00000014       \177ADVAPI32_NULL_THUNK_DATA 10007014     advapi32:ADVAPI32.dll
 0002:00000018       __imp__DeleteDC@4          10007018     gdi32:GDI32.dll
 0002:0000001c       __imp__DeleteObject@4      1000701c     gdi32:GDI32.dll
 0002:00000020       __imp__SelectObject@8      10007020     gdi32:GDI32.dll
 0002:00000024       __imp__CreateSolidBrush@4  10007024     gdi32:GDI32.dll
 0002:00000028       __imp__BitBlt@36           10007028     gdi32:GDI32.dll
 0002:0000002c       __imp__CreateCompatibleBitmap@12 1000702c     gdi32:GDI32.dll
 0002:00000030       __imp__CreateCompatibleDC@4 10007030     gdi32:GDI32.dll
 0002:00000034       __imp__SetTextColor@8      10007034     gdi32:GDI32.dll
 0002:00000038       __imp__CreateFontIndirectW@4 10007038     gdi32:GDI32.dll
 0002:0000003c       __imp__StretchBlt@44       1000703c     gdi32:GDI32.dll
 0002:00000040       __imp__SetBkMode@8         10007040     gdi32:GDI32.dll
 0002:00000044       \177GDI32_NULL_THUNK_DATA  10007044     gdi32:GDI32.dll
 0002:00000048       __imp__WaitForSingleObject@8 10007048     kernel32:KERNEL32.dll
 0002:0000004c       __imp__CreateThread@24     1000704c     kernel32:KERNEL32.dll
 0002:00000050       __imp__DeleteCriticalSection@4 10007050     kernel32:KERNEL32.dll
 0002:00000054       __imp__LeaveCriticalSection@4 10007054     kernel32:KERNEL32.dll
 0002:00000058       __imp__FindCloseChangeNotification@4 10007058     kernel32:KERNEL32.dll
 0002:0000005c       __imp__EnterCriticalSection@4 1000705c     kernel32:KERNEL32.dll
 0002:00000060       __imp__ReadConsoleOutputW@20 10007060     kernel32:KERNEL32.dll
 0002:00000064       __imp__GetConsoleScreenBufferInfo@8 10007064     kernel32:KERNEL32.dll
 0002:00000068       __imp__GetStdHandle@4      10007068     kernel32:KERNEL32.dll
 0002:0000006c       __imp__lstrcpynW@12        1000706c     kernel32:KERNEL32.dll
 0002:00000070       __imp__WideCharToMultiByte@32 10007070     kernel32:KERNEL32.dll
 0002:00000074       __imp__FindNextChangeNotification@4 10007074     kernel32:KERNEL32.dll
 0002:00000078       __imp__ReadFile@20         10007078     kernel32:KERNEL32.dll
 0002:0000007c       __imp__GetFileInformationByHandle@8 1000707c     kernel32:KERNEL32.dll
 0002:00000080       __imp__CreateFileW@28      10007080     kernel32:KERNEL32.dll
 0002:00000084       __imp__TerminateThread@8   10007084     kernel32:KERNEL32.dll
 0002:00000088       __imp__ExpandEnvironmentStringsW@12 10007088     kernel32:KERNEL32.dll
 0002:0000008c       __imp__lstrcmpW@8          1000708c     kernel32:KERNEL32.dll
 0002:00000090       __imp__lstrcmpiW@8         10007090     kernel32:KERNEL32.dll
 0002:00000094       __imp__GetTempPathW@8      10007094     kernel32:KERNEL32.dll
 0002:00000098       __imp__OutputDebugStringW@4 10007098     kernel32:KERNEL32.dll
 0002:0000009c       __imp__GetDriveTypeW@4     1000709c     kernel32:KERNEL32.dll
 0002:000000a0       __imp__GetDiskFreeSpaceExW@16 100070a0     kernel32:KERNEL32.dll
 0002:000000a4       __imp__InitializeCriticalSection@4 100070a4     kernel32:KERNEL32.dll
 0002:000000a8       __imp__MultiByteToWideChar@24 100070a8     kernel32:KERNEL32.dll
 0002:000000ac       __imp__lstrlenA@4          100070ac     kernel32:KERNEL32.dll
 0002:000000b0       __imp__lstrcpynA@12        100070b0     kernel32:KERNEL32.dll
 0002:000000b4       __imp__lstrcpyA@8          100070b4     kernel32:KERNEL32.dll
 0002:000000b8       __imp__HeapCreate@12       100070b8     kernel32:KERNEL32.dll
 0002:000000bc       __imp__HeapDestroy@4       100070bc     kernel32:KERNEL32.dll
 0002:000000c0       __imp__CloseHandle@4       100070c0     kernel32:KERNEL32.dll
 0002:000000c4       __imp__LoadLibraryW@4      100070c4     kernel32:KERNEL32.dll
 0002:000000c8       __imp__GetProcAddress@8    100070c8     kernel32:KERNEL32.dll
 0002:000000cc       __imp__FreeLibrary@4       100070cc     kernel32:KERNEL32.dll
 0002:000000d0       __imp__GetCurrentProcessId@0 100070d0     kernel32:KERNEL32.dll
 0002:000000d4       __imp__VirtualProtect@16   100070d4     kernel32:KERNEL32.dll
 0002:000000d8       __imp__GetModuleFileNameW@12 100070d8     kernel32:KERNEL32.dll
 0002:000000dc       __imp__lstrcpyW@8          100070dc     kernel32:KERNEL32.dll
 0002:000000e0       __imp__GetLastError@0      100070e0     kernel32:KERNEL32.dll
 0002:000000e4       __imp__lstrcatW@8          100070e4     kernel32:KERNEL32.dll
 0002:000000e8       __imp__lstrlenW@4          100070e8     kernel32:KERNEL32.dll
 0002:000000ec       __imp__GetLocalTime@4      100070ec     kernel32:KERNEL32.dll
 0002:000000f0       __imp__SystemTimeToFileTime@8 100070f0     kernel32:KERNEL32.dll
 0002:000000f4       __imp__HeapReAlloc@16      100070f4     kernel32:KERNEL32.dll
 0002:000000f8       __imp__HeapAlloc@12        100070f8     kernel32:KERNEL32.dll
 0002:000000fc       __imp__GetProcessHeap@0    100070fc     kernel32:KERNEL32.dll
 0002:00000100       __imp__FindFirstChangeNotificationW@12 10007100     kernel32:KERNEL32.dll
 0002:00000104       __imp__HeapFree@12         10007104     kernel32:KERNEL32.dll
 0002:00000108       \177KERNEL32_NULL_THUNK_DATA 10007108     kernel32:KERNEL32.dll
 0002:0000010c       __imp__FillRect@12         1000710c     user32:USER32.dll
 0002:00000110       __imp__DrawTextW@20        10007110     user32:USER32.dll
 0002:00000114       __imp__CharUpperBuffW@8    10007114     user32:USER32.dll
 0002:00000118       __imp__GetDC@4             10007118     user32:USER32.dll
 0002:0000011c       __imp__CharLowerBuffW@8    1000711c     user32:USER32.dll
 0002:00000120       __imp__ReleaseDC@8         10007120     user32:USER32.dll
 0002:00000124       __imp__MessageBoxW@16      10007124     user32:USER32.dll
 0002:00000128       __imp__wsprintfW           10007128     user32:USER32.dll
 0002:0000012c       \177USER32_NULL_THUNK_DATA 1000712c     user32:USER32.dll
 0002:00000130       __imp__GetFileVersionInfoSizeW@8 10007130     version:VERSION.dll
 0002:00000134       __imp__GetFileVersionInfoW@16 10007134     version:VERSION.dll
 0002:00000138       __imp__VerQueryValueW@16   10007138     version:VERSION.dll
 0002:0000013c       \177VERSION_NULL_THUNK_DATA 1000713c     version:VERSION.dll
 0002:00000140       __imp__CoUninitialize@0    10007140     ole32:ole32.dll
 0002:00000144       __imp__CoInitialize@4      10007144     ole32:ole32.dll
 0002:00000148       \177ole32_NULL_THUNK_DATA  10007148     ole32:ole32.dll
 0002:00000150       ??_C@_1BO@DPOJIDLN@?$AAB?$AAa?$AAc?$AAk?$AAg?$AAr?$AAo?$AAu?$AAn?$AAd?$AA?4?$AAx?$AAm?$AAl?$AA?$AA@ 10007150     ConEmuBg.obj
 0002:00000170       ??_C@_0L@DJCGGOCO@ConfigureW?$AA@ 10007170     ConEmuBg.obj
 0002:0000017c       ??_C@_08BCACMCCB@ExitFARW?$AA@ 1000717c     ConEmuBg.obj
 0002:00000188       ??_C@_1BM@NBLKFLKP@?$AAX?$AAm?$AAl?$AAC?$AAo?$AAn?$AAf?$AAi?$AAg?$AAF?$AAi?$AAl?$AAe?$AA?$AA@ 10007188     ConEmuBg.obj
 0002:000001a4       ??_C@_1BM@GCLEPEKO@?$AAP?$AAl?$AAu?$AAg?$AAi?$AAn?$AAE?$AAn?$AAa?$AAb?$AAl?$AAe?$AAd?$AA?$AA@ 100071a4     ConEmuBg.obj
 0002:000001c0       ??_7MStream@@6B@           100071c0     ConEmuBg.obj
 0002:000001f8       ??_C@_1CA@GGFPMHLH@?$AA?6?$AAE?$AAr?$AAr?$AAC?$AAo?$AAd?$AAe?$AA?$DN?$AA0?$AAx?$AA?$CF?$AA0?$AA8?$AAX?$AA?$AA@ 100071f8     ConEmuBg.obj
 0002:00000218       ??_C@_1FG@LNADFPCE@?$AAL?$AAo?$AAa?$AAd?$AAF?$AAa?$AAr?$AAV?$AAe?$AAr?$AAs?$AAi?$AAo?$AAn?$AA?4?$AAG?$AAe?$AAt?$AAM?$AAo?$AAd?$AAu?$AAl?$AAe?$AAF?$AAi?$AAl?$AAe?$AAN?$AAa?$AAm?$AAe@ 10007218     ConEmuBg.obj
 0002:00000270       ??_C@_1GC@COKOAMPP@?$AAL?$AAo?$AAa?$AAd?$AAF?$AAa?$AAr?$AAV?$AAe?$AAr?$AAs?$AAi?$AAo?$AAn?$AA?4?$AAG?$AAe?$AAt?$AAF?$AAi?$AAl?$AAe?$AAV?$AAe?$AAr?$AAs?$AAi?$AAo?$AAn?$AAI?$AAn?$AAf@ 10007270     ConEmuBg.obj
 0002:000002d8       ??_C@_1GC@BJIMIHFH@?$AAL?$AAo?$AAa?$AAd?$AAF?$AAa?$AAr?$AAV?$AAe?$AAr?$AAs?$AAi?$AAo?$AAn?$AA?5?$AAf?$AAa?$AAi?$AAl?$AAe?$AAd?$AA?$CB?$AA?5?$AAC?$AAa?$AAn?$AA?8?$AAt?$AA?5?$AAa?$AAl?$AAl@ 100072d8     ConEmuBg.obj
 0002:00000340       ??_C@_1FK@EOBKNMNM@?$AAL?$AAo?$AAa?$AAd?$AAF?$AAa?$AAr?$AAV?$AAe?$AAr?$AAs?$AAi?$AAo?$AAn?$AA?4?$AAG?$AAe?$AAt?$AAF?$AAi?$AAl?$AAe?$AAV?$AAe?$AAr?$AAs?$AAi?$AAo?$AAn?$AAI?$AAn?$AAf@ 10007340     ConEmuBg.obj
 0002:000003a0       ??_C@_1FG@LALGGOEO@?$AAL?$AAo?$AAa?$AAd?$AAF?$AAa?$AAr?$AAV?$AAe?$AAr?$AAs?$AAi?$AAo?$AAn?$AA?4?$AAV?$AAe?$AAr?$AAQ?$AAu?$AAe?$AAr?$AAy?$AAV?$AAa?$AAl?$AAu?$AAe?$AA?$CI?$AA?$CC?$AA?2?$AA?$CC@ 100073a0     ConEmuBg.obj
 0002:000003f8       ??_C@_13FPGAJAPJ@?$AA?2?$AA?$AA@ 100073f8     ConEmuBg.obj
 0002:000003fc       ??_C@_1CC@JLFNPNCD@?$AAC?$AAo?$AAn?$AAE?$AAm?$AAu?$AAB?$AAg?$AA?0?$AA?5?$AAP?$AAI?$AAD?$AA?$DN?$AA?$CF?$AAu?$AA?$AA@ 100073fc     ConEmuBg.obj
 0002:00000420       ??_C@_1EG@ENHOOKPB@?$AAF?$AAu?$AAn?$AAc?$AAt?$AAi?$AAo?$AAn?$AAs?$AA?5?$AAn?$AAo?$AAt?$AA?5?$AAf?$AAo?$AAu?$AAn?$AAd?$AA?5?$AAi?$AAn?$AA?5?$AAG?$AAd?$AAi?$AAP?$AAl?$AAu?$AAs?$AA?4?$AAd@ 10007420     ConEmuBg.obj
 0002:00000468       ??_C@_1CM@JMKADHIE@?$AAG?$AAd?$AAi?$AAp?$AAl?$AAu?$AAs?$AAS?$AAt?$AAa?$AAr?$AAt?$AAu?$AAp?$AA?5?$AAf?$AAa?$AAi?$AAl?$AAe?$AAd?$AA?$AA@ 10007468     ConEmuBg.obj
 0002:00000494       ??_C@_0BI@GEKGFIAG@GdipBitmapConvertFormat?$AA@ 10007494     ConEmuBg.obj
 0002:000004ac       ??_C@_0BM@MMIJHLFD@GdipGetImageGraphicsContext?$AA@ 100074ac     ConEmuBg.obj
 0002:000004c8       ??_C@_0O@KHJJFDII@GdipReleaseDC?$AA@ 100074c8     ConEmuBg.obj
 0002:000004d8       ??_C@_09EJEFPMLL@GdipGetDC?$AA@ 100074d8     ConEmuBg.obj
 0002:000004e4       ??_C@_0BD@MFGJCODH@GdipDeleteGraphics?$AA@ 100074e4     ConEmuBg.obj
 0002:000004f8       ??_C@_0BC@PACDIGJN@GdipCreateFromHDC?$AA@ 100074f8     ConEmuBg.obj
 0002:0000050c       ??_C@_0P@DANGKLEH@GdipDrawImageI?$AA@ 1000750c     ConEmuBg.obj
 0002:0000051c       ??_C@_0BB@MGCHKKMH@GdipDisposeImage?$AA@ 1000751c     ConEmuBg.obj
 0002:00000530       ??_C@_0BD@JIGBIPOH@GdipGetImageHeight?$AA@ 10007530     ConEmuBg.obj
 0002:00000544       ??_C@_0BC@DPLNHGNM@GdipGetImageWidth?$AA@ 10007544     ConEmuBg.obj
 0002:00000558       ??_C@_0BJ@IPKMAACN@GdipCreateBitmapFromFile?$AA@ 10007558     ConEmuBg.obj
 0002:00000574       ??_C@_0BA@OMKIAPCJ@GdiplusShutdown?$AA@ 10007574     ConEmuBg.obj
 0002:00000584       ??_C@_0P@NIGHOHPH@GdiplusStartup?$AA@ 10007584     ConEmuBg.obj
 0002:00000594       ??_C@_1CO@CNEBCEFN@?$AAG?$AAd?$AAi?$AAP?$AAl?$AAu?$AAs?$AA?4?$AAd?$AAl?$AAl?$AA?5?$AAn?$AAo?$AAt?$AA?5?$AAf?$AAo?$AAu?$AAn?$AAd?$AA?$CB?$AA?$AA@ 10007594     ConEmuBg.obj
 0002:000005c4       ??_C@_1BI@LOJECBFD@?$AAG?$AAd?$AAi?$AAP?$AAl?$AAu?$AAs?$AA?4?$AAd?$AAl?$AAl?$AA?$AA@ 100075c4     ConEmuBg.obj
 0002:000005e0       ??_C@_1GC@KCIBPHOM@?$AAG?$AAe?$AAt?$AAM?$AAo?$AAd?$AAu?$AAl?$AAe?$AAF?$AAi?$AAl?$AAe?$AAN?$AAa?$AAm?$AAe?$AA?5?$AAf?$AAa?$AAi?$AAl?$AAe?$AAd?$AA?5?$AAi?$AAn?$AA?5?$AAG?$AAD?$AAI?$AAP@ 100075e0     ConEmuBg.obj
 0002:00000644       ??_C@_11LOCGONAA@?$AA?$AA@ 10007644     ConEmuBg.obj
 0002:00000648       ??_C@_1EE@FAACFJFL@?$AA?$CF?$AAs?$AA?5?$AAn?$AAo?$AAt?$AA?5?$AAf?$AAo?$AAu?$AAn?$AAd?$AA?5?$AAi?$AAn?$AA?5?$AAt?$AAh?$AAe?$AA?5?$AAp?$AAl?$AAu?$AAg?$AAi?$AAn?$AA?5?$AAf?$AAo?$AAl?$AAd?$AAe@ 10007648     ConEmuBg.obj
 0002:0000068c       ??_C@_1DI@GHPFDGCO@?$AAC?$AAa?$AAn?$AA?8?$AAt?$AA?5?$AAr?$AAe?$AAa?$AAd?$AA?5?$AA?$CF?$AAu?$AA?5?$AAb?$AAy?$AAt?$AAe?$AAs?$AA?5?$AAf?$AAr?$AAo?$AAm?$AA?5?$AA?$CF?$AAs?$AA?$AA@ 1000768c     ConEmuBg.obj
 0002:000006c4       ??_C@_1DO@FEGEOJKO@?$AAC?$AAa?$AAn?$AA?8?$AAt?$AA?5?$AAa?$AAl?$AAl?$AAo?$AAc?$AAa?$AAt?$AAe?$AA?5?$AA?$CF?$AAu?$AA?5?$AAb?$AAy?$AAt?$AAe?$AAs?$AA?5?$AAf?$AAo?$AAr?$AA?5?$AA?$CF?$AAs?$AA?$AA@ 100076c4     ConEmuBg.obj
 0002:00000708       ??_C@_1EM@KNLHNKFN@?$AA?$CF?$AAs?$AA?5?$AAf?$AAi?$AAl?$AAe?$AA?5?$AAi?$AAn?$AA?5?$AAt?$AAh?$AAe?$AA?5?$AAp?$AAl?$AAu?$AAg?$AAi?$AAn?$AA?5?$AAf?$AAo?$AAl?$AAd?$AAe?$AAr?$AA?5?$AAi?$AAs?$AA?5@ 10007708     ConEmuBg.obj
 0002:00000758       ??_C@_1EE@OPEIBADO@?$AAC?$AAa?$AAn?$AA?8?$AAt?$AA?5?$AAi?$AAn?$AAi?$AAt?$AAi?$AAa?$AAl?$AAi?$AAz?$AAe?$AA?5?$AAn?$AAa?$AAm?$AAe?$AA?5?$AAo?$AAf?$AA?5?$AAx?$AAm?$AAl?$AA?5?$AAf?$AAi?$AAl@ 10007758     ConEmuBg.obj
 0002:000007a0       ??_C@_1GC@JKFCNIDB@?$AAT?$AAo?$AAo?$AA?5?$AAl?$AAo?$AAn?$AAg?$AA?5?$AAx?$AAm?$AAl?$AA?5?$AAp?$AAa?$AAt?$AAh?$AA?5?$AAa?$AAf?$AAt?$AAe?$AAr?$AA?5?$AAE?$AAx?$AAp?$AAa?$AAn?$AAd?$AAE?$AAn@ 100077a0     ConEmuBg.obj
 0002:00000808       ??_C@_1GM@NPCBAKPP@?$AAf?$AAu?$AAn?$AAc?$AAt?$AAi?$AAo?$AAn?$AA?5?$AAC?$AAr?$AAe?$AAa?$AAt?$AAe?$AAX?$AAm?$AAl?$AAR?$AAe?$AAa?$AAd?$AAe?$AAr?$AA?5?$AAi?$AAn?$AA?5?$AAt?$AAh?$AAe?$AA?5@ 10007808     ConEmuBg.obj
 0002:00000874       ??_C@_0BA@EICHKACL@CreateXmlReader?$AA@ 10007874     ConEmuBg.obj
 0002:00000884       ??_C@_1CM@BLKKKOJI@?$AAx?$AAm?$AAl?$AAl?$AAi?$AAt?$AAe?$AA?4?$AAd?$AAl?$AAl?$AA?5?$AAn?$AAo?$AAt?$AA?5?$AAf?$AAo?$AAu?$AAn?$AAd?$AA?$AA@ 10007884     ConEmuBg.obj
 0002:000008b0       ??_C@_1BI@DCLCNAFM@?$AAx?$AAm?$AAl?$AAl?$AAi?$AAt?$AAe?$AA?4?$AAd?$AAl?$AAl?$AA?$AA@ 100078b0     ConEmuBg.obj
 0002:000008c8       ??_C@_1HA@MHONNEJA@?$AAC?$AAr?$AAe?$AAa?$AAt?$AAe?$AAC?$AAo?$AAm?$AAp?$AAa?$AAt?$AAi?$AAb?$AAl?$AAe?$AA?$FL?$AAD?$AAC?$AA?$HM?$AAB?$AAi?$AAt?$AAm?$AAa?$AAp?$AA?$FN?$AA?5?$AAf?$AAa?$AAi?$AAl@ 100078c8     ConEmuBg.obj
 0002:00000938       ??_C@_1EK@HIHBLDLC@?$AAC?$AAa?$AAn?$AA?8?$AAt?$AA?5?$AAa?$AAl?$AAl?$AAo?$AAc?$AAa?$AAt?$AAe?$AA?5?$AAm?$AAe?$AAm?$AAo?$AAr?$AAy?$AA?5?$AAf?$AAo?$AAr?$AA?5?$AAs?$AAz?$AAF?$AAu?$AAl?$AAl@ 10007938     ConEmuBg.obj
 0002:00000984       ??_C@_1DO@BMBIALGO@?$AAG?$AAe?$AAt?$AAI?$AAm?$AAa?$AAg?$AAe?$AAS?$AAi?$AAz?$AAe?$AA?5?$AAf?$AAa?$AAi?$AAl?$AAe?$AAd?$AA?0?$AA?5?$AAE?$AAr?$AAr?$AA?$DN?$AA?$CF?$AAi?$AA?6?$AA?$CF?$AAs?$AA?$AA@ 10007984     ConEmuBg.obj
 0002:000009c8       ??_C@_1EG@KBBKNBAB@?$AAC?$AAr?$AAe?$AAa?$AAt?$AAe?$AAC?$AAo?$AAm?$AAp?$AAa?$AAt?$AAi?$AAb?$AAl?$AAe?$AA?$FL?$AAD?$AAC?$AA?$HM?$AAB?$AAi?$AAt?$AAm?$AAa?$AAp?$AA?$FN?$AA?5?$AAf?$AAa?$AAi?$AAl@ 100079c8     ConEmuBg.obj
 0002:00000a10       ??_C@_1DI@COJKFCDM@?$AAG?$AAd?$AAi?$AAp?$AAG?$AAe?$AAt?$AAD?$AAC?$AA?5?$AAf?$AAa?$AAi?$AAl?$AAe?$AAd?$AA?0?$AA?5?$AAE?$AAr?$AAr?$AA?$DN?$AA?$CF?$AAi?$AA?6?$AA?$CF?$AAs?$AA?$AA@ 10007a10     ConEmuBg.obj
 0002:00000a48       ??_C@_1EM@FGINKPEA@?$AAC?$AAa?$AAn?$AA?8?$AAt?$AA?5?$AAa?$AAl?$AAl?$AAo?$AAc?$AAa?$AAt?$AAe?$AA?5?$AAm?$AAe?$AAm?$AAo?$AAr?$AAy?$AA?5?$AAf?$AAo?$AAr?$AA?5?$AAC?$AAa?$AAc?$AAh?$AAe?$AAd@ 10007a48     ConEmuBg.obj
 0002:00000a98       ??_C@_1EC@FCMECJAF@?$AAG?$AAd?$AAi?$AAp?$AAD?$AAr?$AAa?$AAw?$AAI?$AAm?$AAa?$AAg?$AAe?$AAI?$AA?5?$AAf?$AAa?$AAi?$AAl?$AAe?$AAd?$AA?0?$AA?5?$AAE?$AAr?$AAr?$AA?$DN?$AA?$CF?$AAi?$AA?6?$AA?$CF?$AAs@ 10007a98     ConEmuBg.obj
 0002:00000ae0       ??_C@_1EI@MNPBDJFF@?$AAG?$AAd?$AAi?$AAp?$AAC?$AAr?$AAe?$AAa?$AAt?$AAe?$AAF?$AAr?$AAo?$AAm?$AAH?$AAD?$AAC?$AA?5?$AAf?$AAa?$AAi?$AAl?$AAe?$AAd?$AA?0?$AA?5?$AAE?$AAr?$AAr?$AA?$DN?$AA?$CF?$AAi@ 10007ae0     ConEmuBg.obj
 0002:00000b28       ??_C@_1DI@MGMDCCIK@?$AAC?$AAa?$AAn?$AA?8?$AAt?$AA?5?$AAl?$AAo?$AAa?$AAd?$AA?5?$AAi?$AAm?$AAa?$AAg?$AAe?$AA?0?$AA?5?$AAE?$AAr?$AAr?$AA?$DN?$AA?$CF?$AAi?$AA?6?$AA?$CF?$AAs?$AA?$AA@ 10007b28     ConEmuBg.obj
 0002:00000b60       ??_C@_17DCNMIAEN@?$AAr?$AAe?$AAf?$AA?$AA@ 10007b60     ConEmuBg.obj
 0002:00000b68       ??_C@_17EHOCEIDI@?$AAi?$AAm?$AAg?$AA?$AA@ 10007b68     ConEmuBg.obj
 0002:00000b70       ??_C@_1BI@FHFKHMCH@?$AAP?$AAA?$AAN?$AAE?$AAL?$AAF?$AAO?$AAR?$AAM?$AAA?$AAT?$AA?$AA@ 10007b70     ConEmuBg.obj
 0002:00000b88       ??_C@_1BG@CACAJBGP@?$AAV?$AAO?$AAL?$AAU?$AAM?$AAE?$AAS?$AAI?$AAZ?$AAE?$AA?$AA@ 10007b88     ConEmuBg.obj
 0002:00000ba0       ??_C@_1O@DFDGIFKD@?$AAV?$AAO?$AAL?$AAU?$AAM?$AAE?$AA?$AA@ 10007ba0     ConEmuBg.obj
 0002:00000bb0       ??_C@_1M@CNKDNHCK@?$AA?5?$AA?7?$AA?$AN?$AA?6?$AA?$CL?$AA?$AA@ 10007bb0     ConEmuBg.obj
 0002:00000bbc       ??_C@_1M@NFEAPLNL@?$AAt?$AAi?$AAt?$AAl?$AAe?$AA?$AA@ 10007bbc     ConEmuBg.obj
 0002:00000bc8       ??_C@_17FDPGNGBJ@?$AAo?$AAf?$AAf?$AA?$AA@ 10007bc8     ConEmuBg.obj
 0002:00000bd0       ??_C@_1M@GACLNJGJ@?$AAl?$AAa?$AAr?$AAg?$AAe?$AA?$AA@ 10007bd0     ConEmuBg.obj
 0002:00000bdc       ??_C@_1M@LPGODFOM@?$AAs?$AAp?$AAa?$AAc?$AAe?$AA?$AA@ 10007bdc     ConEmuBg.obj
 0002:00000be8       ??_C@_17IHBDLLG@?$AAy?$AAe?$AAs?$AA?$AA@ 10007be8     ConEmuBg.obj
 0002:00000bf0       ??_C@_1M@OAJKEOAM@?$AAs?$AAh?$AAi?$AAf?$AAt?$AA?$AA@ 10007bf0     ConEmuBg.obj
 0002:00000bfc       ??_C@_1BE@OACCNEKL@?$AAb?$AAg?$AAr?$AA_?$AAl?$AAi?$AAg?$AAh?$AAt?$AA?$AA@ 10007bfc     ConEmuBg.obj
 0002:00000c10       ??_C@_1BC@JFCNIMOB@?$AAb?$AAg?$AAr?$AA_?$AAd?$AAa?$AAr?$AAk?$AA?$AA@ 10007c10     ConEmuBg.obj
 0002:00000c24       ??_C@_17NMNENAKF@?$AAb?$AAg?$AAr?$AA?$AA@ 10007c24     ConEmuBg.obj
 0002:00000c2c       ??_C@_1BE@OGMDEBBA@?$AAr?$AAg?$AAb?$AA_?$AAl?$AAi?$AAg?$AAh?$AAt?$AA?$AA@ 10007c2c     ConEmuBg.obj
 0002:00000c40       ??_C@_1BC@NNDMOMJF@?$AAr?$AAg?$AAb?$AA_?$AAd?$AAa?$AAr?$AAk?$AA?$AA@ 10007c40     ConEmuBg.obj
 0002:00000c54       ??_C@_17PAHGLGBB@?$AAr?$AAg?$AAb?$AA?$AA@ 10007c54     ConEmuBg.obj
 0002:00000c5c       ??_C@_1M@EENKLIPJ@?$AAc?$AAo?$AAl?$AAo?$AAr?$AA?$AA@ 10007c5c     ConEmuBg.obj
 0002:00000c68       ??_C@_1BC@LGPIFEA@?$AAd?$AAi?$AAs?$AAa?$AAb?$AAl?$AAe?$AAd?$AA?$AA@ 10007c68     ConEmuBg.obj
 0002:00000c7c       ??_C@_1O@JODKLKCF@?$AAf?$AAo?$AAr?$AAm?$AAa?$AAt?$AA?$AA@ 10007c7c     ConEmuBg.obj
 0002:00000c8c       ??_C@_1BE@FDJCBAKA@?$AAp?$AAa?$AAt?$AAh?$AAm?$AAa?$AAt?$AAc?$AAh?$AA?$AA@ 10007c8c     ConEmuBg.obj
 0002:00000ca0       ??_C@_19LFDMGLCC@?$AAT?$AAE?$AAM?$AAP?$AA?$AA@ 10007ca0     ConEmuBg.obj
 0002:00000cac       ??_C@_1BC@FAFPDLON@?$AAp?$AAa?$AAt?$AAh?$AAt?$AAy?$AAp?$AAe?$AA?$AA@ 10007cac     ConEmuBg.obj
 0002:00000cc0       ??_C@_1BA@EJELCCEN@?$AAR?$AAA?$AAM?$AAD?$AAI?$AAS?$AAK?$AA?$AA@ 10007cc0     ConEmuBg.obj
 0002:00000cd0       ??_C@_1M@NEPFDHKI@?$AAC?$AAD?$AAR?$AAO?$AAM?$AA?$AA@ 10007cd0     ConEmuBg.obj
 0002:00000cdc       ??_C@_1O@OAMNPHFH@?$AAR?$AAE?$AAM?$AAO?$AAT?$AAE?$AA?$AA@ 10007cdc     ConEmuBg.obj
 0002:00000cec       ??_C@_1M@PEPLLLCM@?$AAF?$AAI?$AAX?$AAE?$AAD?$AA?$AA@ 10007cec     ConEmuBg.obj
 0002:00000cf8       ??_C@_1BE@JMGCMLBE@?$AAR?$AAE?$AAM?$AAO?$AAV?$AAA?$AAB?$AAL?$AAE?$AA?$AA@ 10007cf8     ConEmuBg.obj
 0002:00000d0c       ??_C@_1BI@BCACJIAB@?$AAN?$AAO?$AA_?$AAR?$AAO?$AAO?$AAT?$AA_?$AAD?$AAI?$AAR?$AA?$AA@ 10007d0c     ConEmuBg.obj
 0002:00000d24       ??_C@_1BE@FAHOEFOG@?$AAd?$AAr?$AAi?$AAv?$AAe?$AAt?$AAy?$AAp?$AAe?$AA?$AA@ 10007d24     ConEmuBg.obj
 0002:00000d38       ??_C@_19FILLMKCG@?$AAI?$AAN?$AAF?$AAO?$AA?$AA@ 10007d38     ConEmuBg.obj
 0002:00000d44       ??_C@_1M@KIGDKMPO@?$AAQ?$AAV?$AAI?$AAE?$AAW?$AA?$AA@ 10007d44     ConEmuBg.obj
 0002:00000d50       ??_C@_19EINGHGNA@?$AAT?$AAR?$AAE?$AAE?$AA?$AA@ 10007d50     ConEmuBg.obj
 0002:00000d5c       ??_C@_1O@BDNPEFIG@?$AAP?$AAL?$AAU?$AAG?$AAI?$AAN?$AA?$AA@ 10007d5c     ConEmuBg.obj
 0002:00000d6c       ??_C@_1M@EKGBHJEJ@?$AAD?$AAR?$AAI?$AAV?$AAE?$AA?$AA@ 10007d6c     ConEmuBg.obj
 0002:00000d78       ??_C@_1O@EFKGOBLP@?$AAV?$AAI?$AAE?$AAW?$AAE?$AAR?$AA?$AA@ 10007d78     ConEmuBg.obj
 0002:00000d88       ??_C@_1O@PEPCDNON@?$AAE?$AAD?$AAI?$AAT?$AAO?$AAR?$AA?$AA@ 10007d88     ConEmuBg.obj
 0002:00000d98       ??_C@_1M@HLGJKDIH@?$AAP?$AAA?$AAN?$AAE?$AAL?$AA?$AA@ 10007d98     ConEmuBg.obj
 0002:00000da4       ??_C@_1O@OCKFCHPL@?$AAP?$AAA?$AAN?$AAE?$AAL?$AAS?$AA?$AA@ 10007da4     ConEmuBg.obj
 0002:00000db4       ??_C@_19FHBCDCCA@?$AAt?$AAy?$AAp?$AAe?$AA?$AA@ 10007db4     ConEmuBg.obj
 0002:00000dc0       ??_C@_1M@HCONLDPB@?$AAp?$AAa?$AAn?$AAe?$AAl?$AA?$AA@ 10007dc0     ConEmuBg.obj
 0002:00000dcc       ??_C@_1O@IANIHGAM@?$AAw?$AAi?$AAn?$AAd?$AAo?$AAw?$AA?$AA@ 10007dcc     ConEmuBg.obj
 0002:00000ddc       __GUID_7279fc81_709d_4095_b63d_69fe4b0d9030 10007ddc     ConEmuBg.obj
 0002:00000dec       ??_C@_1O@FLJJBOMO@?$AA?2?$AAT?$AAE?$AAM?$AAP?$AA?2?$AA?$AA@ 10007dec     ConEmuBg.obj
 0002:00000e00       ??_C@_1EI@KDEPAOIE@?$AAC?$AAo?$AAn?$AAE?$AAm?$AAu?$AAB?$AAk?$AA?3?$AA?5?$AA?$CF?$AAs?$AA?5?$AA?9?$AA?5?$AA?$HL?$AA?$CF?$AAi?$AA?0?$AA?$CF?$AAi?$AA?0?$AA?$CF?$AAi?$AA?0?$AA?$CF?$AAi?$AA?$CJ?$AA?5?$AA?$CD?$AA?$CF?$AA0@ 10007e00     ConEmuBg.obj
 0002:00000e48       ??_C@_1DA@JALAODAO@?$AAi?$AAm?$AAg?$AA?1?$AAd?$AAr?$AAi?$AAv?$AAe?$AA_?$AAr?$AAe?$AAm?$AAo?$AAv?$AAa?$AAb?$AAl?$AAe?$AA?4?$AAp?$AAn?$AAg?$AA?$AA@ 10007e48     ConEmuBg.obj
 0002:00000e78       ??_C@_1CM@FDAGABBA@?$AAi?$AAm?$AAg?$AA?1?$AAd?$AAr?$AAi?$AAv?$AAe?$AA_?$AAn?$AAe?$AAt?$AAw?$AAo?$AAr?$AAk?$AA?4?$AAp?$AAn?$AAg?$AA?$AA@ 10007e78     ConEmuBg.obj
 0002:00000ea4       ??_C@_1CI@DLJJCGCI@?$AAi?$AAm?$AAg?$AA?1?$AAd?$AAr?$AAi?$AAv?$AAe?$AA_?$AAc?$AAd?$AAr?$AAo?$AAm?$AA?4?$AAp?$AAn?$AAg?$AA?$AA@ 10007ea4     ConEmuBg.obj
 0002:00000ecc       ??_C@_1CM@NJAGAAPF@?$AAi?$AAm?$AAg?$AA?1?$AAd?$AAr?$AAi?$AAv?$AAe?$AA_?$AAr?$AAa?$AAm?$AAd?$AAi?$AAs?$AAk?$AA?4?$AAp?$AAn?$AAg?$AA?$AA@ 10007ecc     ConEmuBg.obj
 0002:00000ef8       ??_C@_1CI@FIJFGDPK@?$AAi?$AAm?$AAg?$AA?1?$AAd?$AAr?$AAi?$AAv?$AAe?$AA_?$AAf?$AAi?$AAx?$AAe?$AAd?$AA?4?$AAp?$AAn?$AAg?$AA?$AA@ 10007ef8     ConEmuBg.obj
 0002:00000f20       ??_C@_1BO@KJOLJEJK@?$AAi?$AAm?$AAg?$AA?1?$AAp?$AAl?$AAu?$AAg?$AAi?$AAn?$AA?4?$AAp?$AAn?$AAg?$AA?$AA@ 10007f20     ConEmuBg.obj
 0002:00000f40       ??_C@_1FK@LJOGCJPM@?$AAC?$AAo?$AAn?$AAE?$AAm?$AAu?$AAB?$AAk?$AA?3?$AA?5?$AAD?$AAi?$AAs?$AAa?$AAb?$AAl?$AAe?$AAd?$AA?5?$AA?$CF?$AAs?$AA?5?$AA?9?$AA?5?$AA?$HL?$AA?$CF?$AAi?$AA?0?$AA?$CF?$AAi?$AA?0?$AA?$CF@ 10007f40     ConEmuBg.obj
 0002:00000f9c       ??_C@_1M@KDEMMBOH@?$AAR?$AAi?$AAg?$AAh?$AAt?$AA?$AA@ 10007f9c     ConEmuBg.obj
 0002:00000fa8       ??_C@_19DKAIAFPE@?$AAL?$AAe?$AAf?$AAt?$AA?$AA@ 10007fa8     ConEmuBg.obj
 0002:00000fb4       ??_C@_1M@MDEFCCAF@?$AA?$CF?$AAu?$AA?5?$AA?$CF?$AAs?$AA?$AA@ 10007fb4     ConEmuBg.obj
 0002:00000fc0       ??_C@_1BC@MFPHLBKH@?$AA?$CF?$AAu?$AA?4?$AA?$CF?$AAu?$AA?5?$AA?$CF?$AAs?$AA?$AA@ 10007fc0     ConEmuBg.obj
 0002:00000fd4       ??_C@_15HDKOMGBN@?$AAP?$AAB?$AA?$AA@ 10007fd4     ConEmuBg.obj
 0002:00000fdc       ??_C@_15OIDPIEAL@?$AAT?$AAB?$AA?$AA@ 10007fdc     ConEmuBg.obj
 0002:00000fe4       ??_C@_15GNHNPEDO@?$AAG?$AAB?$AA?$AA@ 10007fe4     ConEmuBg.obj
 0002:00000fec       ??_C@_15MMOGNHFI@?$AAM?$AAB?$AA?$AA@ 10007fec     ConEmuBg.obj
 0002:00000ff4       ??_C@_15BKLPDEEF@?$AAK?$AAB?$AA?$AA@ 10007ff4     ConEmuBg.obj
 0002:00000ffc       ??_C@_13OPKGLAFF@?$AAB?$AA?$AA@ 10007ffc     ConEmuBg.obj
 0002:00001000       ??_C@_1M@KAKMLIHO@?$AAA?$AAr?$AAi?$AAa?$AAl?$AA?$AA@ 10008000     ConEmuBg.obj
 0002:00001010       ??_C@_1FG@IGPHDCHD@?$AAC?$AAo?$AAn?$AAE?$AAm?$AAu?$AAB?$AAk?$AA?3?$AA?5?$AAI?$AAn?$AAv?$AAi?$AAs?$AAi?$AAb?$AAl?$AAe?$AA?5?$AAR?$AAi?$AAg?$AAh?$AAt?$AA?5?$AA?9?$AA?5?$AA?$HL?$AA?$CF?$AAi?$AA?0@ 10008010     ConEmuBg.obj
 0002:00001068       ??_C@_1FE@OJCEMPCK@?$AAC?$AAo?$AAn?$AAE?$AAm?$AAu?$AAB?$AAk?$AA?3?$AA?5?$AAI?$AAn?$AAv?$AAi?$AAs?$AAi?$AAb?$AAl?$AAe?$AA?5?$AAL?$AAe?$AAf?$AAt?$AA?5?$AA?9?$AA?5?$AA?$HL?$AA?$CF?$AAi?$AA?0?$AA?$CF@ 10008068     ConEmuBg.obj
 0002:000010bc       ??_C@_1BE@POBJGOHE@?$AAC?$AAo?$AAn?$AAE?$AAm?$AAu?$AAB?$AAg?$AA?2?$AA?$AA@ 100080bc     ConEmuBg995.obj
 0002:000010d0       ??_C@_1DE@DJEAMLPH@?$AAC?$AAo?$AAn?$AAE?$AAm?$AAu?$AA?4?$AAM?$AAa?$AAx?$AAi?$AAm?$AAu?$AAs?$AA5?$AA?$EA?$AAg?$AAm?$AAa?$AAi?$AAl?$AA?4?$AAc?$AAo?$AAm?$AA?$AA@ 100080d0     ConEmuBg2800.obj
 0002:00001108       ??_C@_1GC@GCGDBDMO@?$AAP?$AAa?$AAi?$AAn?$AAt?$AA?5?$AAF?$AAa?$AAr?$AA?5?$AAp?$AAa?$AAn?$AAe?$AAl?$AAs?$AA?5?$AAb?$AAa?$AAc?$AAk?$AAg?$AAr?$AAo?$AAu?$AAn?$AAd?$AA?5?$AAi?$AAn?$AA?5?$AAt@ 10008108     ConEmuBg2800.obj
 0002:0000116c       ??_C@_1CE@PJKCDLK@?$AAC?$AAo?$AAn?$AAE?$AAm?$AAu?$AA?5?$AAB?$AAa?$AAc?$AAk?$AAg?$AAr?$AAo?$AAu?$AAn?$AAd?$AA?$AA@ 1000816c     ConEmuBg2800.obj
 0002:00001190       _IID_IUnknown              10008190     uuid:unknwn_i.obj
 0002:000011a0       _IID_ISequentialStream     100081a0     uuid:objidl_i.obj
 0002:000011b0       _IID_IStream               100081b0     uuid:objidl_i.obj
 0002:000011c0       __IMPORT_DESCRIPTOR_KERNEL32 100081c0     kernel32:KERNEL32.dll
 0002:000011d4       __IMPORT_DESCRIPTOR_USER32 100081d4     user32:USER32.dll
 0002:000011e8       __IMPORT_DESCRIPTOR_GDI32  100081e8     gdi32:GDI32.dll
 0002:000011fc       __IMPORT_DESCRIPTOR_ADVAPI32 100081fc     advapi32:ADVAPI32.dll
 0002:00001210       __IMPORT_DESCRIPTOR_ole32  10008210     ole32:ole32.dll
 0002:00001224       __IMPORT_DESCRIPTOR_VERSION 10008224     version:VERSION.dll
 0002:00001238       __NULL_IMPORT_DESCRIPTOR   10008238     kernel32:KERNEL32.dll
 0003:00000000       ?gSettings@@3PAUConEmuBgSettings@@A 10009000     ConEmuBg.obj
 0003:00000030       ?Far3Func@@3PAUExportFunc@@A 10009030     ConEmuBg.obj
 0003:00000054       ?szDefaultXmlName@@3PB_WB  10009054     ConEmuBg.obj
 0003:00000058       ?guid_ConEmuBg@@3U_GUID@@A 10009058     ConEmuBg2800.obj
 0003:00000068       ?guid_ConEmuBgCfgDlg@@3U_GUID@@A 10009068     ConEmuBg2800.obj
 0003:00000078       ?guid_ConEmuBgPluginMenu@@3U_GUID@@A 10009078     ConEmuBg2800.obj
 0003:00000088       ?guid_ConEmuBgPluginConfig@@3U_GUID@@A 10009088     ConEmuBg2800.obj
 0003:000000a0       ?ghPluginModule@@3PAUHINSTANCE__@@A 100090a0     ConEmuBg.obj
 0003:000000a4       ?gFarVersion@@3UFarVersion@@A 100090a4     ConEmuBg.obj
 0003:000000b0       ?gbInStartPlugin@@3_NA     100090b0     ConEmuBg.obj
 0003:000000b1       ?gbSetStartupInfoOk@@3_NA  100090b1     ConEmuBg.obj
 0003:000000b2       ?gbGdiPlusInitialized@@3_NA 100090b2     ConEmuBg.obj
 0003:000000b4       ?gbBackgroundEnabled@@3HA  100090b4     ConEmuBg.obj
 0003:000000b8       ?gsXmlConfigFile@@3PA_WA   100090b8     ConEmuBg.obj
 0003:000002c0       ?gbMonitorFileChange@@3HA  100092c0     ConEmuBg.obj
 0003:000002c4       ?gbInfoW_OK@@3HA           100092c4     ConEmuBg.obj
 0003:000002c8       ?gfCreateXmlReader@@3P6GJABU_GUID@@PAPAXPAX@ZA 100092c8     ConEmuBg.obj
 0003:000002cc       ?ghXmlLite@@3PAUHINSTANCE__@@A 100092cc     ConEmuBg.obj
 0003:000002d0       ?XmlFile@@3UXmlConfigFile@@A 100092d0     ConEmuBg.obj
 0003:000002fc       ?gpszXmlFile@@3PA_WA       100092fc     ConEmuBg.obj
 0003:00000300       ?gpszXmlFolder@@3PA_WA     10009300     ConEmuBg.obj
 0003:00000304       ?ghXmlNotification@@3PAXA  10009304     ConEmuBg.obj
 0003:00000308       ?gpDecoder@@3PAUGDIPlusDecoder@@A 10009308     ConEmuBg.obj
 0003:00000310       ?InfoW995@@3PAUPluginStartupInfo@@A 10009310     ConEmuBg995.obj
 0003:00000314       ?FSFW995@@3PAUFarStandardFunctions@@A 10009314     ConEmuBg995.obj
 0003:00000520       ?InfoW1900@@3PAUPluginStartupInfo@@A 10009520     ConEmuBg1900.obj
 0003:00000524       ?FSFW1900@@3PAUFarStandardFunctions@@A 10009524     ConEmuBg1900.obj
 0003:00000730       ?InfoW2800@@3PAUPluginStartupInfo@@A 10009730     ConEmuBg2800.obj
 0003:00000734       ?FSFW2800@@3PAUFarStandardFunctions@@A 10009734     ConEmuBg2800.obj
 0003:00000940       ?InfoA@@3PAUPluginStartupInfo@@A 10009940     ConEmuBgA.obj
 0003:00000944       ?FSFA@@3PAUFarStandardFunctions@@A 10009944     ConEmuBgA.obj
 0003:00000a50       ?ghHeap@@3PAXA             10009a50     Memory.obj

 entry point at        0001:00001662

 Static symbols

 0001:0000002b       ?StringLengthWorkerW@@YGJPB_WIPAI@Z 1000102b f   ConEmuBg.obj
 0001:0000005b       ?StringCopyWorkerW@@YGJPA_WIPAIPB_WI@Z 1000105b f   ConEmuBg.obj
 0001:00000405       ?LoadFarVersion@@YI_NAAUFarVersion@@AAY0CAA@_W@Z 10001405 f   ConEmuBg.obj
 0001:000005d5       ?ChangeExports@@YI_NPBUExportFunc@@PAUHINSTANCE__@@@Z 100015d5 f   ConEmuBg.obj
 0001:00003c78       ?ConfigDlgProc@@YGJPAXHHJ@Z 10004c78 f   ConEmuBg995.obj
 0001:00003cff       ?ConfigureProc@@YIHH@Z     10004cff f   ConEmuBg995.obj
 0001:000041b1       ?ConfigDlgProc@@YGHPAXHH0@Z 100051b1 f   ConEmuBg1900.obj
 0001:00004238       ?ConfigureProc@@YIHH@Z     10005238 f   ConEmuBg1900.obj
 0001:000049fe       ?ConfigDlgProc@@YGHPAXHH0@Z 100059fe f   ConEmuBg2800.obj
 0001:00004a85       ?ConfigureProc@@YIHH@Z     10005a85 f   ConEmuBg2800.obj
 0001:0000524d       ?GetMsg@@YIPADH@Z          1000624d f   ConEmuBgA.obj
 0001:00005265       ?ConfigDlgProc@@YGJPAXHHJ@Z 10006265 f   ConEmuBgA.obj
 0001:000052f6       ?ConfigureProc@@YIHH@Z     100062f6 f   ConEmuBgA.obj
 0001:000058d0       ?strtoxl@@YAKPB_WPAPA_WHH@Z 100068d0 f   libCRT:strtol.obj
